target datalayout = "e-m:e-p270:32:32-p271:32:32-p272:64:64-i64:64-i128:128-f80:128-n8:16:32:64-S128"
target triple = "x86_64-pc-linux-gnu"

%class.LogTagSet = type { ptr, i64, [5 x i32], [4 x i8], %class.LogOutputList, %class.LogDecorators, ptr }
%class.LogOutputList = type <{ [6 x ptr], i32, [4 x i8] }>
%class.LogDecorators = type { i32 }
%class.FormatBuffer = type { %class.FormatBufferBase, [256 x i8] }
%class.FormatBufferBase = type { ptr }

@ClassUnloading = external global i8, align 1
@.str = private unnamed_addr constant [92 x i8] c"Shenandoah I-U mode sets -XX:-ClassUnloadingWithConcurrentMark; see JDK-8261341 for details\00", align 1
@ClassUnloadingWithConcurrentMark = external global i8, align 1
@VerifyBeforeExit = external global i8, align 1
@ShenandoahIUBarrier = external global i8, align 1
@ShenandoahSATBBarrier = external global i8, align 1
@ExplicitGCInvokesConcurrent = external global i8, align 1
@.str.4 = private unnamed_addr constant [63 x i8] c"Heuristics ergonomically sets -XX:+ExplicitGCInvokesConcurrent\00", align 1
@ShenandoahImplicitGCInvokesConcurrent = external global i8, align 1
@.str.5 = private unnamed_addr constant [73 x i8] c"Heuristics ergonomically sets -XX:+ShenandoahImplicitGCInvokesConcurrent\00", align 1
@ShenandoahLoadRefBarrier = external global i8, align 1
@.str.6 = private unnamed_addr constant [62 x i8] c"GC mode needs -XX:+ShenandoahLoadRefBarrier to work correctly\00", align 1
@.str.7 = private unnamed_addr constant [6 x i8] c"Error\00", align 1
@.str.8 = private unnamed_addr constant [59 x i8] c"GC mode needs -XX:-ShenandoahSATBBarrier to work correctly\00", align 1
@.str.9 = private unnamed_addr constant [57 x i8] c"GC mode needs -XX:+ShenandoahIUBarrier to work correctly\00", align 1
@ShenandoahCASBarrier = external global i8, align 1
@.str.10 = private unnamed_addr constant [58 x i8] c"GC mode needs -XX:+ShenandoahCASBarrier to work correctly\00", align 1
@ShenandoahCloneBarrier = external global i8, align 1
@.str.11 = private unnamed_addr constant [60 x i8] c"GC mode needs -XX:+ShenandoahCloneBarrier to work correctly\00", align 1
@ShenandoahStackWatermarkBarrier = external global i8, align 1
@.str.12 = private unnamed_addr constant [69 x i8] c"GC mode needs -XX:+ShenandoahStackWatermarkBarrier to work correctly\00", align 1
@_ZN16LogTagSetMappingILN6LogTag4typeE49ELS1_0ELS1_0ELS1_0ELS1_0ELS1_0EE7_tagsetE = linkonce_odr hidden global %class.LogTagSet zeroinitializer, comdat, align 8

; Function Attrs: mustprogress nounwind uwtable
define linkonce_odr hidden noundef zeroext i1 @_ZNK13LogOutputList8is_levelEN8LogLevel4typeE(ptr noundef nonnull align 8 dereferenceable(52) %0, i32 noundef %1) #1 comdat align 2 {
  %3 = alloca ptr, align 8
  %4 = alloca i32, align 4
  store ptr %0, ptr %3, align 8
  store i32 %1, ptr %4, align 4
  %5 = load ptr, ptr %3, align 8
  %6 = getelementptr inbounds %class.LogOutputList, ptr %5, i32 0, i32 0
  %7 = load i32, ptr %4, align 4
  %8 = zext i32 %7 to i64
  %9 = getelementptr inbounds [6 x ptr], ptr %6, i64 0, i64 %8
  %10 = load volatile ptr, ptr %9, align 8
  %11 = icmp ne ptr %10, null
  ret i1 %11
}

; Function Attrs: mustprogress nounwind uwtable
define linkonce_odr hidden noundef zeroext i1 @_ZNK9LogTagSet8is_levelEN8LogLevel4typeE(ptr noundef nonnull align 8 dereferenceable(112) %0, i32 noundef %1) #1 comdat align 2 {
  %3 = alloca ptr, align 8
  %4 = alloca i32, align 4
  store ptr %0, ptr %3, align 8
  store i32 %1, ptr %4, align 4
  %5 = load ptr, ptr %3, align 8
  %6 = getelementptr inbounds %class.LogTagSet, ptr %5, i32 0, i32 4
  %7 = load i32, ptr %4, align 4
  %8 = call noundef zeroext i1 @_ZNK13LogOutputList8is_levelEN8LogLevel4typeE(ptr noundef nonnull align 8 dereferenceable(52) %6, i32 noundef %7)
  ret i1 %8
}

; Function Attrs: mustprogress nounwind uwtable
define linkonce_odr hidden noundef nonnull align 8 dereferenceable(112) ptr @_ZN16LogTagSetMappingILN6LogTag4typeE49ELS1_0ELS1_0ELS1_0ELS1_0ELS1_0EE6tagsetEv() #1 comdat align 2 {
  ret ptr @_ZN16LogTagSetMappingILN6LogTag4typeE49ELS1_0ELS1_0ELS1_0ELS1_0ELS1_0EE7_tagsetE
}

; Function Attrs: mustprogress nounwind uwtable
define linkonce_odr hidden noundef ptr @_ZNK16FormatBufferBasecvPKcEv(ptr noundef nonnull align 8 dereferenceable(8) %0) #1 comdat align 2 {
  %2 = alloca ptr, align 8
  store ptr %0, ptr %2, align 8
  %3 = load ptr, ptr %2, align 8
  %4 = getelementptr inbounds %class.FormatBufferBase, ptr %3, i32 0, i32 0
  %5 = load ptr, ptr %4, align 8
  ret ptr %5
}

; Function Attrs: mustprogress nounwind uwtable
define linkonce_odr hidden noundef zeroext i1 @_ZN7LogImplILN6LogTag4typeE49ELS1_0ELS1_0ELS1_0ELS1_0ELS1_0EE8is_levelEN8LogLevel4typeE(i32 noundef %0) #1 comdat align 2 {
  %2 = alloca i32, align 4
  store i32 %0, ptr %2, align 4
  %3 = call noundef nonnull align 8 dereferenceable(112) ptr @_ZN16LogTagSetMappingILN6LogTag4typeE49ELS1_0ELS1_0ELS1_0ELS1_0ELS1_0EE6tagsetEv()
  %4 = load i32, ptr %2, align 4
  %5 = call noundef zeroext i1 @_ZNK9LogTagSet8is_levelEN8LogLevel4typeE(ptr noundef nonnull align 8 dereferenceable(112) %3, i32 noundef %4)
  ret i1 %5
}

; Function Attrs: mustprogress nounwind uwtable
define hidden void @_ZNK16ShenandoahIUMode16initialize_flagsEv(ptr noundef nonnull align 8 dereferenceable(8) %0) unnamed_addr #1 align 2 {
  %2 = alloca ptr, align 8
  %3 = alloca %class.FormatBuffer, align 8
  %4 = alloca %class.FormatBuffer, align 8
  %5 = alloca %class.FormatBuffer, align 8
  %6 = alloca %class.FormatBuffer, align 8
  %7 = alloca %class.FormatBuffer, align 8
  %8 = alloca %class.FormatBuffer, align 8
  store ptr %0, ptr %2, align 8
  %9 = call noundef zeroext i1 @_ZN7JVMFlag10is_cmdlineE12JVMFlagsEnum(i32 noundef 602)
  br i1 %9, label %10, label %18

10:                                               ; preds = %1
  %11 = load i8, ptr @ClassUnloading, align 1
  %12 = trunc i8 %11 to i1
  br i1 %12, label %13, label %18

13:                                               ; preds = %10
  %14 = call noundef zeroext i1 @_ZN7LogImplILN6LogTag4typeE49ELS1_0ELS1_0ELS1_0ELS1_0ELS1_0EE8is_levelEN8LogLevel4typeE(i32 noundef 4)
  br i1 %14, label %16, label %15

15:                                               ; preds = %13
  br label %17

16:                                               ; preds = %13
  call void (ptr, ...) @_ZN7LogImplILN6LogTag4typeE49ELS1_0ELS1_0ELS1_0ELS1_0ELS1_0EE5writeILN8LogLevel4typeE4EEEvPKcz(ptr noundef @.str)
  br label %17

17:                                               ; preds = %16, %15
  br label %18

18:                                               ; preds = %17, %10, %1
  store i8 0, ptr @ClassUnloadingWithConcurrentMark, align 1
  %19 = load i8, ptr @ClassUnloading, align 1
  %20 = trunc i8 %19 to i1
  br i1 %20, label %21, label %22

21:                                               ; preds = %18
  store i8 0, ptr @VerifyBeforeExit, align 1
  br label %22

22:                                               ; preds = %21, %18
  %23 = call noundef zeroext i1 @_ZN7JVMFlag10is_defaultE12JVMFlagsEnum(i32 noundef 1052)
  br i1 %23, label %24, label %25

24:                                               ; preds = %22
  store i8 1, ptr @ShenandoahIUBarrier, align 1
  br label %25

25:                                               ; preds = %24, %22
  %26 = call noundef zeroext i1 @_ZN7JVMFlag10is_defaultE12JVMFlagsEnum(i32 noundef 1051)
  br i1 %26, label %27, label %28

27:                                               ; preds = %25
  store i8 0, ptr @ShenandoahSATBBarrier, align 1
  br label %28

28:                                               ; preds = %27, %25
  br label %29

29:                                               ; preds = %28
  %30 = call noundef zeroext i1 @_ZN7JVMFlag10is_defaultE12JVMFlagsEnum(i32 noundef 1099)
  br i1 %30, label %31, label %39

31:                                               ; preds = %29
  %32 = load i8, ptr @ExplicitGCInvokesConcurrent, align 1
  %33 = trunc i8 %32 to i1
  br i1 %33, label %39, label %34

34:                                               ; preds = %31
  %35 = call noundef zeroext i1 @_ZN7LogImplILN6LogTag4typeE49ELS1_0ELS1_0ELS1_0ELS1_0ELS1_0EE8is_levelEN8LogLevel4typeE(i32 noundef 3)
  br i1 %35, label %37, label %36

36:                                               ; preds = %34
  br label %38

37:                                               ; preds = %34
  call void (ptr, ...) @_ZN7LogImplILN6LogTag4typeE49ELS1_0ELS1_0ELS1_0ELS1_0ELS1_0EE5writeILN8LogLevel4typeE3EEEvPKcz(ptr noundef @.str.4)
  br label %38

38:                                               ; preds = %37, %36
  store i8 1, ptr @ExplicitGCInvokesConcurrent, align 1
  br label %39

39:                                               ; preds = %38, %31, %29
  br label %40

40:                                               ; preds = %39
  br label %41

41:                                               ; preds = %40
  %42 = call noundef zeroext i1 @_ZN7JVMFlag10is_defaultE12JVMFlagsEnum(i32 noundef 1042)
  br i1 %42, label %43, label %51

43:                                               ; preds = %41
  %44 = load i8, ptr @ShenandoahImplicitGCInvokesConcurrent, align 1
  %45 = trunc i8 %44 to i1
  br i1 %45, label %51, label %46

46:                                               ; preds = %43
  %47 = call noundef zeroext i1 @_ZN7LogImplILN6LogTag4typeE49ELS1_0ELS1_0ELS1_0ELS1_0ELS1_0EE8is_levelEN8LogLevel4typeE(i32 noundef 3)
  br i1 %47, label %49, label %48

48:                                               ; preds = %46
  br label %50

49:                                               ; preds = %46
  call void (ptr, ...) @_ZN7LogImplILN6LogTag4typeE49ELS1_0ELS1_0ELS1_0ELS1_0ELS1_0EE5writeILN8LogLevel4typeE3EEEvPKcz(ptr noundef @.str.5)
  br label %50

50:                                               ; preds = %49, %48
  store i8 1, ptr @ShenandoahImplicitGCInvokesConcurrent, align 1
  br label %51

51:                                               ; preds = %50, %43, %41
  br label %52

52:                                               ; preds = %51
  br label %53

53:                                               ; preds = %52
  %54 = load i8, ptr @ShenandoahLoadRefBarrier, align 1
  %55 = trunc i8 %54 to i1
  br i1 %55, label %58, label %56

56:                                               ; preds = %53
  call void (ptr, ptr, ...) @_ZN12FormatBufferILm256EEC2EPKcz(ptr noundef nonnull align 8 dereferenceable(264) %3, ptr noundef @.str.6)
  %57 = call noundef ptr @_ZNK16FormatBufferBasecvPKcEv(ptr noundef nonnull align 8 dereferenceable(8) %3)
  call void @_Z29vm_exit_during_initializationPKcS0_(ptr noundef @.str.7, ptr noundef %57)
  br label %58

58:                                               ; preds = %56, %53
  br label %59

59:                                               ; preds = %58
  br label %60

60:                                               ; preds = %59
  %61 = load i8, ptr @ShenandoahSATBBarrier, align 1
  %62 = trunc i8 %61 to i1
  br i1 %62, label %63, label %65

63:                                               ; preds = %60
  call void (ptr, ptr, ...) @_ZN12FormatBufferILm256EEC2EPKcz(ptr noundef nonnull align 8 dereferenceable(264) %4, ptr noundef @.str.8)
  %64 = call noundef ptr @_ZNK16FormatBufferBasecvPKcEv(ptr noundef nonnull align 8 dereferenceable(8) %4)
  call void @_Z29vm_exit_during_initializationPKcS0_(ptr noundef @.str.7, ptr noundef %64)
  br label %65

65:                                               ; preds = %63, %60
  br label %66

66:                                               ; preds = %65
  br label %67

67:                                               ; preds = %66
  %68 = load i8, ptr @ShenandoahIUBarrier, align 1
  %69 = trunc i8 %68 to i1
  br i1 %69, label %72, label %70

70:                                               ; preds = %67
  call void (ptr, ptr, ...) @_ZN12FormatBufferILm256EEC2EPKcz(ptr noundef nonnull align 8 dereferenceable(264) %5, ptr noundef @.str.9)
  %71 = call noundef ptr @_ZNK16FormatBufferBasecvPKcEv(ptr noundef nonnull align 8 dereferenceable(8) %5)
  call void @_Z29vm_exit_during_initializationPKcS0_(ptr noundef @.str.7, ptr noundef %71)
  br label %72

72:                                               ; preds = %70, %67
  br label %73

73:                                               ; preds = %72
  br label %74

74:                                               ; preds = %73
  %75 = load i8, ptr @ShenandoahCASBarrier, align 1
  %76 = trunc i8 %75 to i1
  br i1 %76, label %79, label %77

77:                                               ; preds = %74
  call void (ptr, ptr, ...) @_ZN12FormatBufferILm256EEC2EPKcz(ptr noundef nonnull align 8 dereferenceable(264) %6, ptr noundef @.str.10)
  %78 = call noundef ptr @_ZNK16FormatBufferBasecvPKcEv(ptr noundef nonnull align 8 dereferenceable(8) %6)
  call void @_Z29vm_exit_during_initializationPKcS0_(ptr noundef @.str.7, ptr noundef %78)
  br label %79

79:                                               ; preds = %77, %74
  br label %80

80:                                               ; preds = %79
  br label %81

81:                                               ; preds = %80
  %82 = load i8, ptr @ShenandoahCloneBarrier, align 1
  %83 = trunc i8 %82 to i1
  br i1 %83, label %86, label %84

84:                                               ; preds = %81
  call void (ptr, ptr, ...) @_ZN12FormatBufferILm256EEC2EPKcz(ptr noundef nonnull align 8 dereferenceable(264) %7, ptr noundef @.str.11)
  %85 = call noundef ptr @_ZNK16FormatBufferBasecvPKcEv(ptr noundef nonnull align 8 dereferenceable(8) %7)
  call void @_Z29vm_exit_during_initializationPKcS0_(ptr noundef @.str.7, ptr noundef %85)
  br label %86

86:                                               ; preds = %84, %81
  br label %87

87:                                               ; preds = %86
  br label %88

88:                                               ; preds = %87
  %89 = load i8, ptr @ShenandoahStackWatermarkBarrier, align 1
  %90 = trunc i8 %89 to i1
  br i1 %90, label %93, label %91

91:                                               ; preds = %88
  call void (ptr, ptr, ...) @_ZN12FormatBufferILm256EEC2EPKcz(ptr noundef nonnull align 8 dereferenceable(264) %8, ptr noundef @.str.12)
  %92 = call noundef ptr @_ZNK16FormatBufferBasecvPKcEv(ptr noundef nonnull align 8 dereferenceable(8) %8)
  call void @_Z29vm_exit_during_initializationPKcS0_(ptr noundef @.str.7, ptr noundef %92)
  br label %93

93:                                               ; preds = %91, %88
  br label %94

94:                                               ; preds = %93
  ret void
}