; Function Attrs: mustprogress nounwind uwtable
define hidden void @_ZNK16ShenandoahIUMode16initialize_flagsEv(ptr nocapture nonnull readnone align 8 %0) unnamed_addr #0 align 2 {
  %2 = alloca %class.FormatBuffer, align 8
  %3 = alloca %class.FormatBuffer, align 8
  %4 = alloca %class.FormatBuffer, align 8
  %5 = alloca %class.FormatBuffer, align 8
  %6 = alloca %class.FormatBuffer, align 8
  %7 = alloca %class.FormatBuffer, align 8
  %8 = tail call noundef zeroext i1 @_ZN7JVMFlag10is_cmdlineE12JVMFlagsEnum(i32 noundef 602) #5
  %.pre3 = load i8, ptr @ClassUnloading, align 1
  br i1 %8, label %9, label %14

9:                                                ; preds = %1
  %10 = trunc i8 %.pre3 to i1
  br i1 %10, label %11, label %14

11:                                               ; preds = %9
  %12 = load volatile ptr, ptr getelementptr inbounds (i8, ptr @_ZN16LogTagSetMappingILN6LogTag4typeE49ELS1_0ELS1_0ELS1_0ELS1_0ELS1_0EE7_tagsetE, i64 72), align 8
  %.not = icmp eq ptr %12, null
  br i1 %.not, label %14, label %13

13:                                               ; preds = %11
  tail call void (ptr, ...) @_ZN7LogImplILN6LogTag4typeE49ELS1_0ELS1_0ELS1_0ELS1_0ELS1_0EE5writeILN8LogLevel4typeE4EEEvPKcz(ptr noundef nonnull @.str)
  %.pre = load i8, ptr @ClassUnloading, align 1
  br label %14

14:                                               ; preds = %13, %11, %9, %1
  %15 = phi i8 [ %.pre, %13 ], [ %.pre3, %11 ], [ %.pre3, %9 ], [ %.pre3, %1 ]
  store i8 0, ptr @ClassUnloadingWithConcurrentMark, align 1
  %16 = trunc i8 %15 to i1
  br i1 %16, label %17, label %18

17:                                               ; preds = %14
  store i8 0, ptr @VerifyBeforeExit, align 1
  br label %18

18:                                               ; preds = %17, %14
  %19 = tail call noundef zeroext i1 @_ZN7JVMFlag10is_defaultE12JVMFlagsEnum(i32 noundef 1052) #5
  br i1 %19, label %20, label %21

20:                                               ; preds = %18
  store i8 1, ptr @ShenandoahIUBarrier, align 1
  br label %21

21:                                               ; preds = %20, %18
  %22 = tail call noundef zeroext i1 @_ZN7JVMFlag10is_defaultE12JVMFlagsEnum(i32 noundef 1051) #5
  br i1 %22, label %23, label %24

23:                                               ; preds = %21
  store i8 0, ptr @ShenandoahSATBBarrier, align 1
  br label %24

24:                                               ; preds = %21, %23
  %25 = tail call noundef zeroext i1 @_ZN7JVMFlag10is_defaultE12JVMFlagsEnum(i32 noundef 1099) #5
  br i1 %25, label %26, label %33

26:                                               ; preds = %24
  %27 = load i8, ptr @ExplicitGCInvokesConcurrent, align 1
  %28 = trunc i8 %27 to i1
  br i1 %28, label %33, label %29

29:                                               ; preds = %26
  %30 = load volatile ptr, ptr getelementptr inbounds (i8, ptr @_ZN16LogTagSetMappingILN6LogTag4typeE49ELS1_0ELS1_0ELS1_0ELS1_0ELS1_0EE7_tagsetE, i64 64), align 8
  %.not1 = icmp eq ptr %30, null
  br i1 %.not1, label %32, label %31

31:                                               ; preds = %29
  tail call void (ptr, ...) @_ZN7LogImplILN6LogTag4typeE49ELS1_0ELS1_0ELS1_0ELS1_0ELS1_0EE5writeILN8LogLevel4typeE3EEEvPKcz(ptr noundef nonnull @.str.4)
  br label %32

32:                                               ; preds = %29, %31
  store i8 1, ptr @ExplicitGCInvokesConcurrent, align 1
  br label %33

33:                                               ; preds = %32, %26, %24
  %34 = tail call noundef zeroext i1 @_ZN7JVMFlag10is_defaultE12JVMFlagsEnum(i32 noundef 1042) #5
  br i1 %34, label %35, label %42

35:                                               ; preds = %33
  %36 = load i8, ptr @ShenandoahImplicitGCInvokesConcurrent, align 1
  %37 = trunc i8 %36 to i1
  br i1 %37, label %42, label %38

38:                                               ; preds = %35
  %39 = load volatile ptr, ptr getelementptr inbounds (i8, ptr @_ZN16LogTagSetMappingILN6LogTag4typeE49ELS1_0ELS1_0ELS1_0ELS1_0ELS1_0EE7_tagsetE, i64 64), align 8
  %.not2 = icmp eq ptr %39, null
  br i1 %.not2, label %41, label %40

40:                                               ; preds = %38
  tail call void (ptr, ...) @_ZN7LogImplILN6LogTag4typeE49ELS1_0ELS1_0ELS1_0ELS1_0ELS1_0EE5writeILN8LogLevel4typeE3EEEvPKcz(ptr noundef nonnull @.str.5)
  br label %41

41:                                               ; preds = %38, %40
  store i8 1, ptr @ShenandoahImplicitGCInvokesConcurrent, align 1
  br label %42

42:                                               ; preds = %41, %35, %33
  %43 = load i8, ptr @ShenandoahLoadRefBarrier, align 1
  %44 = trunc i8 %43 to i1
  br i1 %44, label %47, label %45

45:                                               ; preds = %42
  call void (ptr, ptr, ...) @_ZN12FormatBufferILm256EEC2EPKcz(ptr noundef nonnull align 8 dereferenceable(264) %2, ptr noundef nonnull @.str.6)
  %46 = load ptr, ptr %2, align 8
  call void @_Z29vm_exit_during_initializationPKcS0_(ptr noundef nonnull @.str.7, ptr noundef %46) #5
  br label %47

47:                                               ; preds = %45, %42
  %48 = load i8, ptr @ShenandoahSATBBarrier, align 1
  %49 = trunc i8 %48 to i1
  br i1 %49, label %50, label %52

50:                                               ; preds = %47
  call void (ptr, ptr, ...) @_ZN12FormatBufferILm256EEC2EPKcz(ptr noundef nonnull align 8 dereferenceable(264) %3, ptr noundef nonnull @.str.8)
  %51 = load ptr, ptr %3, align 8
  call void @_Z29vm_exit_during_initializationPKcS0_(ptr noundef nonnull @.str.7, ptr noundef %51) #5
  br label %52

52:                                               ; preds = %50, %47
  %53 = load i8, ptr @ShenandoahIUBarrier, align 1
  %54 = trunc i8 %53 to i1
  br i1 %54, label %57, label %55

55:                                               ; preds = %52
  call void (ptr, ptr, ...) @_ZN12FormatBufferILm256EEC2EPKcz(ptr noundef nonnull align 8 dereferenceable(264) %4, ptr noundef nonnull @.str.9)
  %56 = load ptr, ptr %4, align 8
  call void @_Z29vm_exit_during_initializationPKcS0_(ptr noundef nonnull @.str.7, ptr noundef %56) #5
  br label %57

57:                                               ; preds = %55, %52
  %58 = load i8, ptr @ShenandoahCASBarrier, align 1
  %59 = trunc i8 %58 to i1
  br i1 %59, label %62, label %60

60:                                               ; preds = %57
  call void (ptr, ptr, ...) @_ZN12FormatBufferILm256EEC2EPKcz(ptr noundef nonnull align 8 dereferenceable(264) %5, ptr noundef nonnull @.str.10)
  %61 = load ptr, ptr %5, align 8
  call void @_Z29vm_exit_during_initializationPKcS0_(ptr noundef nonnull @.str.7, ptr noundef %61) #5
  br label %62

62:                                               ; preds = %60, %57
  %63 = load i8, ptr @ShenandoahCloneBarrier, align 1
  %64 = trunc i8 %63 to i1
  br i1 %64, label %67, label %65

65:                                               ; preds = %62
  call void (ptr, ptr, ...) @_ZN12FormatBufferILm256EEC2EPKcz(ptr noundef nonnull align 8 dereferenceable(264) %6, ptr noundef nonnull @.str.11)
  %66 = load ptr, ptr %6, align 8
  call void @_Z29vm_exit_during_initializationPKcS0_(ptr noundef nonnull @.str.7, ptr noundef %66) #5
  br label %67

67:                                               ; preds = %65, %62
  %68 = load i8, ptr @ShenandoahStackWatermarkBarrier, align 1
  %69 = trunc i8 %68 to i1
  br i1 %69, label %72, label %70

70:                                               ; preds = %67
  call void (ptr, ptr, ...) @_ZN12FormatBufferILm256EEC2EPKcz(ptr noundef nonnull align 8 dereferenceable(264) %7, ptr noundef nonnull @.str.12)
  %71 = load ptr, ptr %7, align 8
  call void @_Z29vm_exit_during_initializationPKcS0_(ptr noundef nonnull @.str.7, ptr noundef %71) #5
  br label %72

72:                                               ; preds = %67, %70
  ret void
}